; Function Attrs: mustprogress nounwind uwtable
define internal void @_ZN12_GLOBAL__N_134grpc_ssl_server_security_connectorD2Ev(ptr noundef nonnull align 8 dereferenceable(56) %this) unnamed_addr #6 align 2 personality ptr @__gxx_personality_v0 {
entry:
  store ptr getelementptr inbounds ({ [9 x ptr] }, ptr @_ZTVN12_GLOBAL__N_134grpc_ssl_server_security_connectorE, i64 0, i32 0, i64 2), ptr %this, align 8
  %server_handshaker_factory_ = getelementptr inbounds i8, ptr %this, i64 48
  %0 = load ptr, ptr %server_handshaker_factory_, align 8
  invoke void @_Z39tsi_ssl_server_handshaker_factory_unrefP33tsi_ssl_server_handshaker_factory(ptr noundef %0)
          to label %invoke.cont unwind label %terminate.lpad

invoke.cont:                                      ; preds = %entry
  %mu_ = getelementptr inbounds i8, ptr %this, i64 40
  tail call void @_ZN4absl12lts_202308025MutexD1Ev(ptr noundef nonnull align 8 dereferenceable(8) %mu_) #17
  store ptr getelementptr inbounds ({ [9 x ptr] }, ptr @_ZTV30grpc_server_security_connector, i64 0, i32 0, i64 2), ptr %this, align 8
  %server_creds_.i = getelementptr inbounds i8, ptr %this, i64 32
  %1 = load ptr, ptr %server_creds_.i, align 8
  %cmp.not.i.i = icmp eq ptr %1, null
  br i1 %cmp.not.i.i, label %_ZN30grpc_server_security_connectorD2Ev.exit, label %if.then.i.i

if.then.i.i:                                      ; preds = %invoke.cont
  %refs_.i.i.i = getelementptr inbounds i8, ptr %1, i64 8
  %2 = atomicrmw sub ptr %refs_.i.i.i, i64 1 acq_rel, align 8
  %cmp.i.i.i.i = icmp eq i64 %2, 1
  br i1 %cmp.i.i.i.i, label %if.then.i.i.i, label %_ZN30grpc_server_security_connectorD2Ev.exit

if.then.i.i.i:                                    ; preds = %if.then.i.i
  %vtable.i.i.i.i = load ptr, ptr %1, align 8
  %vfn.i.i.i.i = getelementptr inbounds i8, ptr %vtable.i.i.i.i, i64 8
  %3 = load ptr, ptr %vfn.i.i.i.i, align 8
  tail call void %3(ptr noundef nonnull align 8 dereferenceable(40) %1) #17
  br label %_ZN30grpc_server_security_connectorD2Ev.exit

_ZN30grpc_server_security_connectorD2Ev.exit:     ; preds = %invoke.cont, %if.then.i.i, %if.then.i.i.i
  ret void

terminate.lpad:                                   ; preds = %entry
  %4 = landingpad { ptr, i32 }
          catch ptr null
  %5 = extractvalue { ptr, i32 } %4, 0
  tail call void @__clang_call_terminate(ptr %5) #20
  unreachable
}